; Function Attrs: uwtable
define void @_ZTv0_n32_N8QuantLib26ExtendedBlackVarianceCurve6updateEv(ptr noundef %this) unnamed_addr #13 align 2 {
entry:
  %vtable = load ptr, ptr %this, align 8, !tbaa !42
  %0 = getelementptr inbounds i8, ptr %vtable, i64 -32
  %1 = load i64, ptr %0, align 8
  %2 = getelementptr inbounds i8, ptr %this, i64 %1
  tail call void @_ZN8QuantLib26ExtendedBlackVarianceCurve12setVariancesEv(ptr noundef nonnull align 8 dereferenceable(201) %2)
  %impl_.i.i = getelementptr inbounds nuw i8, ptr %2, i64 184
  %3 = load ptr, ptr %impl_.i.i, align 8, !tbaa !96
  %cmp.not.i.i.i = icmp eq ptr %3, null
  br i1 %cmp.not.i.i.i, label %cond.false.i.i.i, label %_ZN8QuantLib26ExtendedBlackVarianceCurve6updateEv.exit, !prof !91

cond.false.i.i.i:                                 ; preds = %entry
  tail call void @_ZN5boost16assertion_failedEPKcS1_S1_l(ptr noundef nonnull @.str.10, ptr noundef nonnull @__PRETTY_FUNCTION__._ZNK5boost10shared_ptrIN8QuantLib13Interpolation4ImplEEptEv, ptr noundef nonnull @.str.11, i64 noundef 784)
  %.pre.i.i.i = load ptr, ptr %impl_.i.i, align 8, !tbaa !96
  br label %_ZN8QuantLib26ExtendedBlackVarianceCurve6updateEv.exit

_ZN8QuantLib26ExtendedBlackVarianceCurve6updateEv.exit: ; preds = %entry, %cond.false.i.i.i
  %4 = phi ptr [ %3, %entry ], [ %.pre.i.i.i, %cond.false.i.i.i ]
  %vtable.i.i = load ptr, ptr %4, align 8, !tbaa !42
  %vfn.i.i = getelementptr inbounds i8, ptr %vtable.i.i, i64 16
  %5 = load ptr, ptr %vfn.i.i, align 8
  tail call void %5(ptr noundef nonnull align 8 dereferenceable(8) %4)
  %vtable.i = load ptr, ptr %2, align 8, !tbaa !42
  %vbase.offset.ptr.i = getelementptr i8, ptr %vtable.i, i64 -32
  %vbase.offset.i = load i64, ptr %vbase.offset.ptr.i, align 8
  %add.ptr.i = getelementptr inbounds i8, ptr %2, i64 %vbase.offset.i
  tail call void @_ZN8QuantLib10Observable15notifyObserversEv(ptr noundef nonnull align 8 dereferenceable(56) %add.ptr.i)
  ret void
}